target datalayout = "e-m:e-p270:32:32-p271:32:32-p272:64:64-i64:64-i128:128-f80:128-n8:16:32:64-S128"
target triple = "x86_64-pc-linux-gnu"

%class.GrowableArrayBase = type { i32, i32 }
%class.GrowableArrayMetadata = type { i64 }
%class.ciTypeFlow = type { ptr, ptr, i32, i8, ptr, ptr, ptr, ptr, ptr, i32, ptr, ptr }
%class.ciMetadata = type { %class.ciBaseObject.base, ptr }
%class.ciBaseObject.base = type <{ ptr, i32 }>
%"class.ciTypeFlow::Block" = type { ptr, ptr, ptr, ptr, %class.GrowableArray.0, ptr, ptr, i32, i32, i32, i32, i8, i8, i8, i8, i8, ptr, ptr, ptr }
%class.GrowableArray.0 = type { %class.GrowableArrayWithAllocator.1, %class.GrowableArrayMetadata }
%class.GrowableArrayWithAllocator.1 = type { %class.GrowableArrayView.2 }
%class.GrowableArrayView.2 = type { %class.GrowableArrayBase, ptr }
%class.GrowableArrayView.8 = type { %class.GrowableArrayBase, ptr }

; Function Attrs: mustprogress nounwind uwtable
define linkonce_odr hidden void @_ZN10ciTypeFlow5Block8set_nextEPS0_(ptr noundef nonnull align 8 dereferenceable(120) %0, ptr noundef %1) #1 comdat align 2 {
  %3 = alloca ptr, align 8
  %4 = alloca ptr, align 8
  store ptr %0, ptr %3, align 8
  store ptr %1, ptr %4, align 8
  %5 = load ptr, ptr %3, align 8
  %6 = load ptr, ptr %4, align 8
  %7 = getelementptr inbounds %"class.ciTypeFlow::Block", ptr %5, i32 0, i32 16
  store ptr %6, ptr %7, align 8
  ret void
}

; Function Attrs: mustprogress nounwind uwtable
define linkonce_odr hidden noundef ptr @_ZNK10ciTypeFlow5Block4nextEv(ptr noundef nonnull align 8 dereferenceable(120) %0) #1 comdat align 2 {
  %2 = alloca ptr, align 8
  store ptr %0, ptr %2, align 8
  %3 = load ptr, ptr %2, align 8
  %4 = getelementptr inbounds %"class.ciTypeFlow::Block", ptr %3, i32 0, i32 16
  %5 = load ptr, ptr %4, align 8
  ret ptr %5
}

; Function Attrs: mustprogress nounwind uwtable
define linkonce_odr hidden noundef i32 @_ZNK10ciTypeFlow5Block10post_orderEv(ptr noundef nonnull align 8 dereferenceable(120) %0) #1 comdat align 2 {
  %2 = alloca ptr, align 8
  store ptr %0, ptr %2, align 8
  %3 = load ptr, ptr %2, align 8
  %4 = getelementptr inbounds %"class.ciTypeFlow::Block", ptr %3, i32 0, i32 10
  %5 = load i32, ptr %4, align 4
  ret i32 %5
}

; Function Attrs: mustprogress nounwind uwtable
define linkonce_odr hidden void @_ZN10ciTypeFlow5Block16set_on_work_listEb(ptr noundef nonnull align 8 dereferenceable(120) %0, i1 noundef zeroext %1) #1 comdat align 2 {
  %3 = alloca ptr, align 8
  %4 = alloca i8, align 1
  store ptr %0, ptr %3, align 8
  %5 = zext i1 %1 to i8
  store i8 %5, ptr %4, align 1
  %6 = load ptr, ptr %3, align 8
  %7 = load i8, ptr %4, align 1
  %8 = trunc i8 %7 to i1
  %9 = getelementptr inbounds %"class.ciTypeFlow::Block", ptr %6, i32 0, i32 15
  %10 = zext i1 %8 to i8
  store i8 %10, ptr %9, align 4
  ret void
}

; Function Attrs: mustprogress nounwind uwtable
define linkonce_odr hidden noundef ptr @_ZNK10ciTypeFlow5Block5stateEv(ptr noundef nonnull align 8 dereferenceable(120) %0) #1 comdat align 2 {
  %2 = alloca ptr, align 8
  store ptr %0, ptr %2, align 8
  %3 = load ptr, ptr %2, align 8
  %4 = getelementptr inbounds %"class.ciTypeFlow::Block", ptr %3, i32 0, i32 5
  %5 = load ptr, ptr %4, align 8
  ret ptr %5
}

; Function Attrs: mustprogress nounwind uwtable
define hidden void @_ZN10ciTypeFlow16add_to_work_listEPNS_5BlockE(ptr noundef nonnull align 8 dereferenceable(88) %0, ptr noundef %1) #1 align 2 {
  %3 = alloca ptr, align 8
  %4 = alloca ptr, align 8
  %5 = alloca ptr, align 8
  %6 = alloca ptr, align 8
  %7 = alloca i32, align 4
  store ptr %0, ptr %3, align 8
  store ptr %1, ptr %4, align 8
  %8 = load ptr, ptr %3, align 8
  %9 = load ptr, ptr %4, align 8
  call void @_ZN10ciTypeFlow5Block16set_on_work_listEb(ptr noundef nonnull align 8 dereferenceable(120) %9, i1 noundef zeroext true)
  store ptr null, ptr %5, align 8
  %10 = getelementptr inbounds %class.ciTypeFlow, ptr %8, i32 0, i32 7
  %11 = load ptr, ptr %10, align 8
  store ptr %11, ptr %6, align 8
  %12 = load ptr, ptr %4, align 8
  %13 = call noundef i32 @_ZNK10ciTypeFlow5Block10post_orderEv(ptr noundef nonnull align 8 dereferenceable(120) %12)
  store i32 %13, ptr %7, align 4
  br label %14

14:                                               ; preds = %26, %2
  %15 = load ptr, ptr %6, align 8
  %16 = icmp ne ptr %15, null
  br i1 %16, label %17, label %30

17:                                               ; preds = %14
  %18 = load ptr, ptr %6, align 8
  %19 = call noundef zeroext i1 @_ZNK10ciTypeFlow5Block14has_post_orderEv(ptr noundef nonnull align 8 dereferenceable(120) %18)
  br i1 %19, label %20, label %25

20:                                               ; preds = %17
  %21 = load i32, ptr %7, align 4
  %22 = load ptr, ptr %6, align 8
  %23 = call noundef i32 @_ZNK10ciTypeFlow5Block10post_orderEv(ptr noundef nonnull align 8 dereferenceable(120) %22)
  %24 = icmp sgt i32 %21, %23
  br i1 %24, label %25, label %26

25:                                               ; preds = %20, %17
  br label %30

26:                                               ; preds = %20
  %27 = load ptr, ptr %6, align 8
  store ptr %27, ptr %5, align 8
  %28 = load ptr, ptr %6, align 8
  %29 = call noundef ptr @_ZNK10ciTypeFlow5Block4nextEv(ptr noundef nonnull align 8 dereferenceable(120) %28)
  store ptr %29, ptr %6, align 8
  br label %14, !llvm.loop !36

30:                                               ; preds = %25, %14
  %31 = load ptr, ptr %5, align 8
  %32 = icmp eq ptr %31, null
  br i1 %32, label %33, label %39

33:                                               ; preds = %30
  %34 = load ptr, ptr %4, align 8
  %35 = getelementptr inbounds %class.ciTypeFlow, ptr %8, i32 0, i32 7
  %36 = load ptr, ptr %35, align 8
  call void @_ZN10ciTypeFlow5Block8set_nextEPS0_(ptr noundef nonnull align 8 dereferenceable(120) %34, ptr noundef %36)
  %37 = load ptr, ptr %4, align 8
  %38 = getelementptr inbounds %class.ciTypeFlow, ptr %8, i32 0, i32 7
  store ptr %37, ptr %38, align 8
  br label %44

39:                                               ; preds = %30
  %40 = load ptr, ptr %4, align 8
  %41 = load ptr, ptr %6, align 8
  call void @_ZN10ciTypeFlow5Block8set_nextEPS0_(ptr noundef nonnull align 8 dereferenceable(120) %40, ptr noundef %41)
  %42 = load ptr, ptr %5, align 8
  %43 = load ptr, ptr %4, align 8
  call void @_ZN10ciTypeFlow5Block8set_nextEPS0_(ptr noundef nonnull align 8 dereferenceable(120) %42, ptr noundef %43)
  br label %44

44:                                               ; preds = %39, %33
  ret void
}

; Function Attrs: mustprogress nounwind uwtable
define linkonce_odr hidden noundef zeroext i1 @_ZNK10ciTypeFlow5Block15is_on_work_listEv(ptr noundef nonnull align 8 dereferenceable(120) %0) #1 comdat align 2 {
  %2 = alloca ptr, align 8
  store ptr %0, ptr %2, align 8
  %3 = load ptr, ptr %2, align 8
  %4 = getelementptr inbounds %"class.ciTypeFlow::Block", ptr %3, i32 0, i32 15
  %5 = load i8, ptr %4, align 4
  %6 = trunc i8 %5 to i1
  ret i1 %6
}

; Function Attrs: mustprogress nounwind uwtable
define linkonce_odr hidden noundef zeroext i1 @_ZNK10ciTypeFlow5Block14has_post_orderEv(ptr noundef nonnull align 8 dereferenceable(120) %0) #1 comdat align 2 {
  %2 = alloca ptr, align 8
  store ptr %0, ptr %2, align 8
  %3 = load ptr, ptr %2, align 8
  %4 = getelementptr inbounds %"class.ciTypeFlow::Block", ptr %3, i32 0, i32 10
  %5 = load i32, ptr %4, align 4
  %6 = icmp sge i32 %5, 0
  ret i1 %6
}

; Function Attrs: mustprogress nounwind uwtable
define linkonce_odr hidden noundef zeroext i1 @_ZN10ciTypeFlow5Block14meet_exceptionEP15ciInstanceKlassPKNS_11StateVectorE(ptr noundef nonnull align 8 dereferenceable(120) %0, ptr noundef %1, ptr noundef %2) #1 comdat align 2 {
  %4 = alloca ptr, align 8
  %5 = alloca ptr, align 8
  %6 = alloca ptr, align 8
  store ptr %0, ptr %4, align 8
  store ptr %1, ptr %5, align 8
  store ptr %2, ptr %6, align 8
  %7 = load ptr, ptr %4, align 8
  %8 = call noundef ptr @_ZNK10ciTypeFlow5Block5stateEv(ptr noundef nonnull align 8 dereferenceable(120) %7)
  %9 = load ptr, ptr %5, align 8
  %10 = load ptr, ptr %6, align 8
  %11 = call noundef zeroext i1 @_ZN10ciTypeFlow11StateVector14meet_exceptionEP15ciInstanceKlassPKS0_(ptr noundef nonnull align 8 dereferenceable(40) %8, ptr noundef %9, ptr noundef %10)
  ret i1 %11
}

; Function Attrs: mustprogress nounwind uwtable
define linkonce_odr hidden noundef zeroext i1 @_ZNK10ciMetadata9is_loadedEv(ptr noundef nonnull align 8 dereferenceable(24) %0) #1 comdat align 2 {
  %2 = alloca ptr, align 8
  store ptr %0, ptr %2, align 8
  %3 = load ptr, ptr %2, align 8
  %4 = getelementptr inbounds %class.ciMetadata, ptr %3, i32 0, i32 1
  %5 = load ptr, ptr %4, align 8
  %6 = icmp ne ptr %5, null
  br i1 %6, label %12, label %7

7:                                                ; preds = %1
  %8 = load ptr, ptr %3, align 8
  %9 = getelementptr inbounds ptr, ptr %8, i64 4
  %10 = load ptr, ptr %9, align 8
  %11 = call noundef zeroext i1 %10(ptr noundef nonnull align 8 dereferenceable(24) %3)
  br label %12

12:                                               ; preds = %7, %1
  %13 = phi i1 [ true, %1 ], [ %11, %7 ]
  ret i1 %13
}

; Function Attrs: mustprogress nounwind uwtable
define linkonce_odr hidden noundef nonnull align 8 dereferenceable(8) ptr @_ZN17GrowableArrayViewIP15ciInstanceKlassE2atEi(ptr noundef nonnull align 8 dereferenceable(16) %0, i32 noundef %1) #1 comdat align 2 {
  %3 = alloca ptr, align 8
  %4 = alloca i32, align 4
  store ptr %0, ptr %3, align 8
  store i32 %1, ptr %4, align 4
  %5 = load ptr, ptr %3, align 8
  %6 = getelementptr inbounds %class.GrowableArrayView.8, ptr %5, i32 0, i32 1
  %7 = load ptr, ptr %6, align 8
  %8 = load i32, ptr %4, align 4
  %9 = sext i32 %8 to i64
  %10 = getelementptr inbounds ptr, ptr %7, i64 %9
  ret ptr %10
}

; Function Attrs: mustprogress nounwind uwtable
define linkonce_odr hidden noundef nonnull align 8 dereferenceable(8) ptr @_ZN17GrowableArrayViewIPN10ciTypeFlow5BlockEE2atEi(ptr noundef nonnull align 8 dereferenceable(16) %0, i32 noundef %1) #1 comdat align 2 {
  %3 = alloca ptr, align 8
  %4 = alloca i32, align 4
  store ptr %0, ptr %3, align 8
  store i32 %1, ptr %4, align 4
  %5 = load ptr, ptr %3, align 8
  %6 = getelementptr inbounds %class.GrowableArrayView.2, ptr %5, i32 0, i32 1
  %7 = load ptr, ptr %6, align 8
  %8 = load i32, ptr %4, align 4
  %9 = sext i32 %8 to i64
  %10 = getelementptr inbounds ptr, ptr %7, i64 %9
  ret ptr %10
}

; Function Attrs: mustprogress nounwind uwtable
define linkonce_odr hidden noundef i32 @_ZNK17GrowableArrayBase6lengthEv(ptr noundef nonnull align 4 dereferenceable(8) %0) #1 comdat align 2 {
  %2 = alloca ptr, align 8
  store ptr %0, ptr %2, align 8
  %3 = load ptr, ptr %2, align 8
  %4 = getelementptr inbounds %class.GrowableArrayBase, ptr %3, i32 0, i32 0
  %5 = load i32, ptr %4, align 4
  ret i32 %5
}

; Function Attrs: mustprogress nounwind uwtable
define hidden void @_ZN10ciTypeFlow15flow_exceptionsEP13GrowableArrayIPNS_5BlockEEPS0_IP15ciInstanceKlassEPNS_11StateVectorE(ptr noundef nonnull align 8 dereferenceable(88) %0, ptr noundef %1, ptr noundef %2, ptr noundef %3) #1 align 2 {
  %5 = alloca ptr, align 8
  %6 = alloca ptr, align 8
  %7 = alloca ptr, align 8
  %8 = alloca ptr, align 8
  %9 = alloca i32, align 4
  %10 = alloca i32, align 4
  %11 = alloca ptr, align 8
  %12 = alloca ptr, align 8
  store ptr %0, ptr %5, align 8
  store ptr %1, ptr %6, align 8
  store ptr %2, ptr %7, align 8
  store ptr %3, ptr %8, align 8
  %13 = load ptr, ptr %5, align 8
  %14 = load ptr, ptr %6, align 8
  %15 = call noundef i32 @_ZNK17GrowableArrayBase6lengthEv(ptr noundef nonnull align 4 dereferenceable(8) %14)
  store i32 %15, ptr %9, align 4
  store i32 0, ptr %10, align 4
  br label %16

16:                                               ; preds = %47, %4
  %17 = load i32, ptr %10, align 4
  %18 = load i32, ptr %9, align 4
  %19 = icmp slt i32 %17, %18
  br i1 %19, label %20, label %50

20:                                               ; preds = %16
  %21 = load ptr, ptr %6, align 8
  %22 = load i32, ptr %10, align 4
  %23 = call noundef nonnull align 8 dereferenceable(8) ptr @_ZN17GrowableArrayViewIPN10ciTypeFlow5BlockEE2atEi(ptr noundef nonnull align 8 dereferenceable(16) %21, i32 noundef %22)
  %24 = load ptr, ptr %23, align 8
  store ptr %24, ptr %11, align 8
  %25 = load ptr, ptr %7, align 8
  %26 = load i32, ptr %10, align 4
  %27 = call noundef nonnull align 8 dereferenceable(8) ptr @_ZN17GrowableArrayViewIP15ciInstanceKlassE2atEi(ptr noundef nonnull align 8 dereferenceable(16) %25, i32 noundef %26)
  %28 = load ptr, ptr %27, align 8
  store ptr %28, ptr %12, align 8
  %29 = load ptr, ptr %12, align 8
  %30 = call noundef zeroext i1 @_ZNK10ciMetadata9is_loadedEv(ptr noundef nonnull align 8 dereferenceable(24) %29)
  br i1 %30, label %32, label %31

31:                                               ; preds = %20
  br label %47

32:                                               ; preds = %20
  %33 = load ptr, ptr %11, align 8
  %34 = load ptr, ptr %12, align 8
  %35 = load ptr, ptr %8, align 8
  %36 = call noundef zeroext i1 @_ZN10ciTypeFlow5Block14meet_exceptionEP15ciInstanceKlassPKNS_11StateVectorE(ptr noundef nonnull align 8 dereferenceable(120) %33, ptr noundef %34, ptr noundef %35)
  br i1 %36, label %37, label %46

37:                                               ; preds = %32
  %38 = load ptr, ptr %11, align 8
  %39 = call noundef zeroext i1 @_ZNK10ciTypeFlow5Block14has_post_orderEv(ptr noundef nonnull align 8 dereferenceable(120) %38)
  br i1 %39, label %40, label %45

40:                                               ; preds = %37
  %41 = load ptr, ptr %11, align 8
  %42 = call noundef zeroext i1 @_ZNK10ciTypeFlow5Block15is_on_work_listEv(ptr noundef nonnull align 8 dereferenceable(120) %41)
  br i1 %42, label %45, label %43

43:                                               ; preds = %40
  %44 = load ptr, ptr %11, align 8
  call void @_ZN10ciTypeFlow16add_to_work_listEPNS_5BlockE(ptr noundef nonnull align 8 dereferenceable(88) %13, ptr noundef %44)
  br label %45

45:                                               ; preds = %43, %40, %37
  br label %46

46:                                               ; preds = %45, %32
  br label %47

47:                                               ; preds = %46, %31
  %48 = load i32, ptr %10, align 4
  %49 = add nsw i32 %48, 1
  store i32 %49, ptr %10, align 4
  br label %16, !llvm.loop !38

50:                                               ; preds = %16
  ret void
}