; Function Attrs: mustprogress nounwind uwtable
define hidden void @_ZN10ciTypeFlow15flow_exceptionsEP13GrowableArrayIPNS_5BlockEEPS0_IP15ciInstanceKlassEPNS_11StateVectorE(ptr nocapture noundef nonnull align 8 dereferenceable(88) %0, ptr nocapture noundef readonly %1, ptr nocapture noundef readonly %2, ptr nocapture noundef readonly %3) local_unnamed_addr #0 align 2 {
  %5 = load i32, ptr %1, align 4
  %6 = icmp sgt i32 %5, 0
  br i1 %6, label %.lr.ph22, label %._crit_edge

.lr.ph22:                                         ; preds = %4
  %7 = getelementptr inbounds i8, ptr %1, i64 8
  %8 = getelementptr inbounds i8, ptr %2, i64 8
  %9 = getelementptr inbounds i8, ptr %0, i64 48
  %wide.trip.count = zext nneg i32 %5 to i64
  br label %10

10:                                               ; preds = %.lr.ph22, %45
  %indvars.iv = phi i64 [ 0, %.lr.ph22 ], [ %indvars.iv.next, %45 ]
  %11 = load ptr, ptr %7, align 8
  %12 = getelementptr inbounds ptr, ptr %11, i64 %indvars.iv
  %13 = load ptr, ptr %12, align 8
  %14 = load ptr, ptr %8, align 8
  %15 = getelementptr inbounds ptr, ptr %14, i64 %indvars.iv
  %16 = load ptr, ptr %15, align 8
  %17 = getelementptr inbounds i8, ptr %16, i64 16
  %18 = load ptr, ptr %17, align 8
  %.not.i = icmp eq ptr %18, null
  br i1 %.not.i, label %_ZNK10ciMetadata9is_loadedEv.exit, label %_ZNK10ciMetadata9is_loadedEv.exit.thread

_ZNK10ciMetadata9is_loadedEv.exit:                ; preds = %10
  %19 = load ptr, ptr %16, align 8
  %20 = getelementptr inbounds i8, ptr %19, i64 32
  %21 = load ptr, ptr %20, align 8
  %22 = tail call noundef zeroext i1 %21(ptr noundef nonnull align 8 dereferenceable(24) %16) #14
  br i1 %22, label %_ZNK10ciMetadata9is_loadedEv.exit.thread, label %45

_ZNK10ciMetadata9is_loadedEv.exit.thread:         ; preds = %10, %_ZNK10ciMetadata9is_loadedEv.exit
  %23 = getelementptr inbounds i8, ptr %13, i64 56
  %24 = load ptr, ptr %23, align 8
  %25 = tail call noundef zeroext i1 @_ZN10ciTypeFlow11StateVector14meet_exceptionEP15ciInstanceKlassPKS0_(ptr noundef nonnull align 8 dereferenceable(40) %24, ptr noundef nonnull %16, ptr noundef %3)
  br i1 %25, label %26, label %45

26:                                               ; preds = %_ZNK10ciMetadata9is_loadedEv.exit.thread
  %27 = getelementptr inbounds i8, ptr %13, i64 84
  %28 = load i32, ptr %27, align 4
  %.fr.i = freeze i32 %28
  %29 = icmp sgt i32 %.fr.i, -1
  br i1 %29, label %30, label %45

30:                                               ; preds = %26
  %31 = getelementptr inbounds i8, ptr %13, i64 92
  %32 = load i8, ptr %31, align 4
  %33 = trunc i8 %32 to i1
  br i1 %33, label %45, label %34

34:                                               ; preds = %30
  store i8 1, ptr %31, align 4
  %35 = load ptr, ptr %9, align 8
  %.not16.i = icmp eq ptr %35, null
  br i1 %.not16.i, label %._crit_edge.thread.i, label %.lr.ph.i.preheader

.lr.ph.i.preheader:                               ; preds = %34
  %36 = getelementptr inbounds i8, ptr %35, i64 84
  %37 = load i32, ptr %36, align 4
  %or.cond.i18 = icmp slt i32 %37, %.fr.i
  br i1 %or.cond.i18, label %._crit_edge.thread.i, label %.lr.ph

.lr.ph.i:                                         ; preds = %.lr.ph
  %38 = getelementptr inbounds i8, ptr %41, i64 84
  %39 = load i32, ptr %38, align 4
  %or.cond.i = icmp slt i32 %39, %.fr.i
  br i1 %or.cond.i, label %._crit_edge.thread25.i, label %.lr.ph, !llvm.loop !19

.lr.ph:                                           ; preds = %.lr.ph.i.preheader, %.lr.ph.i
  %.01517.i19 = phi ptr [ %41, %.lr.ph.i ], [ %35, %.lr.ph.i.preheader ]
  %40 = getelementptr inbounds i8, ptr %.01517.i19, i64 96
  %41 = load ptr, ptr %40, align 8
  %.not.i15 = icmp eq ptr %41, null
  br i1 %.not.i15, label %._crit_edge.thread25.i, label %.lr.ph.i, !llvm.loop !19

._crit_edge.thread.i:                             ; preds = %.lr.ph.i.preheader, %34
  %42 = getelementptr inbounds i8, ptr %13, i64 96
  store ptr %35, ptr %42, align 8
  br label %_ZN10ciTypeFlow16add_to_work_listEPNS_5BlockE.exit

._crit_edge.thread25.i:                           ; preds = %.lr.ph, %.lr.ph.i
  %43 = getelementptr inbounds i8, ptr %13, i64 96
  store ptr %41, ptr %43, align 8
  %44 = getelementptr inbounds i8, ptr %.01517.i19, i64 96
  br label %_ZN10ciTypeFlow16add_to_work_listEPNS_5BlockE.exit

_ZN10ciTypeFlow16add_to_work_listEPNS_5BlockE.exit: ; preds = %._crit_edge.thread.i, %._crit_edge.thread25.i
  %.sink.i = phi ptr [ %44, %._crit_edge.thread25.i ], [ %9, %._crit_edge.thread.i ]
  store ptr %13, ptr %.sink.i, align 8
  br label %45

45:                                               ; preds = %_ZNK10ciMetadata9is_loadedEv.exit.thread, %_ZN10ciTypeFlow16add_to_work_listEPNS_5BlockE.exit, %30, %26, %_ZNK10ciMetadata9is_loadedEv.exit
  %indvars.iv.next = add nuw nsw i64 %indvars.iv, 1
  %exitcond.not = icmp eq i64 %indvars.iv.next, %wide.trip.count
  br i1 %exitcond.not, label %._crit_edge, label %10, !llvm.loop !20

._crit_edge:                                      ; preds = %45, %4
  ret void
}